target datalayout = "e-m:e-p270:32:32-p271:32:32-p272:64:64-i64:64-i128:128-f80:128-n8:16:32:64-S128"
target triple = "x86_64-pc-linux-gnu"

%"class.pxrInternal_v0_24__pxrReserved__::GfVec2d" = type { [2 x double] }
%"class.pxrInternal_v0_24__pxrReserved__::GfFrustum" = type { %"class.pxrInternal_v0_24__pxrReserved__::GfVec3d", %"class.pxrInternal_v0_24__pxrReserved__::GfRotation", %"class.pxrInternal_v0_24__pxrReserved__::GfRange2d", %"class.pxrInternal_v0_24__pxrReserved__::GfRange1d", double, i32, %"struct.std::atomic" }
%"class.pxrInternal_v0_24__pxrReserved__::GfVec3d" = type { [3 x double] }
%"class.pxrInternal_v0_24__pxrReserved__::GfRotation" = type { %"class.pxrInternal_v0_24__pxrReserved__::GfVec3d", double }
%"class.pxrInternal_v0_24__pxrReserved__::GfRange2d" = type { %"class.pxrInternal_v0_24__pxrReserved__::GfVec2d", %"class.pxrInternal_v0_24__pxrReserved__::GfVec2d" }
%"class.pxrInternal_v0_24__pxrReserved__::GfRange1d" = type { double, double }
%"struct.std::atomic" = type { %"struct.std::__atomic_base" }
%"struct.std::__atomic_base" = type { ptr }

; Function Attrs: mustprogress nounwind uwtable
define linkonce_odr noundef nonnull align 8 dereferenceable(24) ptr @_ZN32pxrInternal_v0_24__pxrReserved__7GfVec3d3SetEddd(ptr noundef nonnull align 8 dereferenceable(24) %0, double noundef %1, double noundef %2, double noundef %3) #2 comdat align 2 {
  %5 = alloca ptr, align 8
  %6 = alloca double, align 8
  %7 = alloca double, align 8
  %8 = alloca double, align 8
  store ptr %0, ptr %5, align 8
  store double %1, ptr %6, align 8
  store double %2, ptr %7, align 8
  store double %3, ptr %8, align 8
  %9 = load ptr, ptr %5, align 8
  %10 = load double, ptr %6, align 8
  %11 = getelementptr inbounds nuw %"class.pxrInternal_v0_24__pxrReserved__::GfVec3d", ptr %9, i32 0, i32 0
  %12 = getelementptr inbounds [3 x double], ptr %11, i64 0, i64 0
  store double %10, ptr %12, align 8
  %13 = load double, ptr %7, align 8
  %14 = getelementptr inbounds nuw %"class.pxrInternal_v0_24__pxrReserved__::GfVec3d", ptr %9, i32 0, i32 0
  %15 = getelementptr inbounds [3 x double], ptr %14, i64 0, i64 1
  store double %13, ptr %15, align 8
  %16 = load double, ptr %8, align 8
  %17 = getelementptr inbounds nuw %"class.pxrInternal_v0_24__pxrReserved__::GfVec3d", ptr %9, i32 0, i32 0
  %18 = getelementptr inbounds [3 x double], ptr %17, i64 0, i64 2
  store double %16, ptr %18, align 8
  ret ptr %9
}

; Function Attrs: mustprogress nounwind uwtable
define linkonce_odr void @_ZNSt13__atomic_baseIPSt5arrayIN32pxrInternal_v0_24__pxrReserved__7GfPlaneELm6EEEC2ES4_(ptr noundef nonnull align 8 dereferenceable(8) %0, ptr noundef %1) unnamed_addr #2 comdat align 2 {
  %3 = alloca ptr, align 8
  %4 = alloca ptr, align 8
  store ptr %0, ptr %3, align 8
  store ptr %1, ptr %4, align 8
  %5 = load ptr, ptr %3, align 8
  %6 = getelementptr inbounds nuw %"struct.std::__atomic_base", ptr %5, i32 0, i32 0
  %7 = load ptr, ptr %4, align 8
  store ptr %7, ptr %6, align 8
  ret void
}

; Function Attrs: mustprogress uwtable
define linkonce_odr noundef nonnull align 8 dereferenceable(32) ptr @_ZN32pxrInternal_v0_24__pxrReserved__10GfRotation11SetIdentityEv(ptr noundef nonnull align 8 dereferenceable(32) %0) #0 comdat align 2 {
  %2 = alloca ptr, align 8
  store ptr %0, ptr %2, align 8
  %3 = load ptr, ptr %2, align 8
  %4 = getelementptr inbounds nuw %"class.pxrInternal_v0_24__pxrReserved__::GfRotation", ptr %3, i32 0, i32 0
  %5 = call noundef nonnull align 8 dereferenceable(24) ptr @_ZN32pxrInternal_v0_24__pxrReserved__7GfVec3d3SetEddd(ptr noundef nonnull align 8 dereferenceable(24) %4, double noundef 1.000000e+00, double noundef 0.000000e+00, double noundef 0.000000e+00)
  %6 = getelementptr inbounds nuw %"class.pxrInternal_v0_24__pxrReserved__::GfRotation", ptr %3, i32 0, i32 1
  store double 0.000000e+00, ptr %6, align 8
  ret ptr %3
}

; Function Attrs: mustprogress nounwind uwtable
define linkonce_odr void @_ZNSt6atomicIPSt5arrayIN32pxrInternal_v0_24__pxrReserved__7GfPlaneELm6EEEC2ES4_(ptr noundef nonnull align 8 dereferenceable(8) %0, ptr noundef %1) unnamed_addr #2 comdat align 2 {
  %3 = alloca ptr, align 8
  %4 = alloca ptr, align 8
  store ptr %0, ptr %3, align 8
  store ptr %1, ptr %4, align 8
  %5 = load ptr, ptr %3, align 8
  %6 = getelementptr inbounds nuw %"struct.std::atomic", ptr %5, i32 0, i32 0
  %7 = load ptr, ptr %4, align 8
  call void @_ZNSt13__atomic_baseIPSt5arrayIN32pxrInternal_v0_24__pxrReserved__7GfPlaneELm6EEEC2ES4_(ptr noundef nonnull align 8 dereferenceable(8) %6, ptr noundef %7) #11
  ret void
}

; Function Attrs: mustprogress nounwind uwtable
define linkonce_odr void @_ZN32pxrInternal_v0_24__pxrReserved__9GfRange1dC2Edd(ptr noundef nonnull align 8 dereferenceable(16) %0, double noundef %1, double noundef %2) unnamed_addr #2 comdat align 2 {
  %4 = alloca ptr, align 8
  %5 = alloca double, align 8
  %6 = alloca double, align 8
  store ptr %0, ptr %4, align 8
  store double %1, ptr %5, align 8
  store double %2, ptr %6, align 8
  %7 = load ptr, ptr %4, align 8
  %8 = getelementptr inbounds nuw %"class.pxrInternal_v0_24__pxrReserved__::GfRange1d", ptr %7, i32 0, i32 0
  %9 = load double, ptr %5, align 8
  store double %9, ptr %8, align 8
  %10 = getelementptr inbounds nuw %"class.pxrInternal_v0_24__pxrReserved__::GfRange1d", ptr %7, i32 0, i32 1
  %11 = load double, ptr %6, align 8
  store double %11, ptr %10, align 8
  ret void
}

; Function Attrs: mustprogress nounwind uwtable
define linkonce_odr void @_ZN32pxrInternal_v0_24__pxrReserved__9GfRange2dC2ERKNS_7GfVec2dES3_(ptr noundef nonnull align 8 dereferenceable(32) %0, ptr noundef nonnull align 8 dereferenceable(16) %1, ptr noundef nonnull align 8 dereferenceable(16) %2) unnamed_addr #2 comdat align 2 {
  %4 = alloca ptr, align 8
  %5 = alloca ptr, align 8
  %6 = alloca ptr, align 8
  store ptr %0, ptr %4, align 8
  store ptr %1, ptr %5, align 8
  store ptr %2, ptr %6, align 8
  %7 = load ptr, ptr %4, align 8
  %8 = getelementptr inbounds nuw %"class.pxrInternal_v0_24__pxrReserved__::GfRange2d", ptr %7, i32 0, i32 0
  %9 = load ptr, ptr %5, align 8
  call void @llvm.memcpy.p0.p0.i64(ptr align 8 %8, ptr align 8 %9, i64 16, i1 false)
  %10 = getelementptr inbounds nuw %"class.pxrInternal_v0_24__pxrReserved__::GfRange2d", ptr %7, i32 0, i32 1
  %11 = load ptr, ptr %6, align 8
  call void @llvm.memcpy.p0.p0.i64(ptr align 8 %10, ptr align 8 %11, i64 16, i1 false)
  ret void
}

; Function Attrs: mustprogress nounwind uwtable
define linkonce_odr void @_ZN32pxrInternal_v0_24__pxrReserved__7GfVec2dC2Edd(ptr noundef nonnull align 8 dereferenceable(16) %0, double noundef %1, double noundef %2) unnamed_addr #2 comdat align 2 {
  %4 = alloca ptr, align 8
  %5 = alloca double, align 8
  %6 = alloca double, align 8
  store ptr %0, ptr %4, align 8
  store double %1, ptr %5, align 8
  store double %2, ptr %6, align 8
  %7 = load ptr, ptr %4, align 8
  %8 = getelementptr inbounds nuw %"class.pxrInternal_v0_24__pxrReserved__::GfVec2d", ptr %7, i32 0, i32 0
  %9 = load double, ptr %5, align 8
  store double %9, ptr %8, align 8
  %10 = getelementptr inbounds double, ptr %8, i64 1
  %11 = load double, ptr %6, align 8
  store double %11, ptr %10, align 8
  ret void
}

; Function Attrs: mustprogress nounwind uwtable
define linkonce_odr void @_ZN32pxrInternal_v0_24__pxrReserved__10GfRotationC2Ev(ptr noundef nonnull align 8 dereferenceable(32) %0) unnamed_addr #2 comdat align 2 {
  %2 = alloca ptr, align 8
  store ptr %0, ptr %2, align 8
  ret void
}

; Function Attrs: mustprogress nounwind uwtable
define linkonce_odr void @_ZN32pxrInternal_v0_24__pxrReserved__7GfVec3dC2Ed(ptr noundef nonnull align 8 dereferenceable(24) %0, double noundef %1) unnamed_addr #2 comdat align 2 {
  %3 = alloca ptr, align 8
  %4 = alloca double, align 8
  store ptr %0, ptr %3, align 8
  store double %1, ptr %4, align 8
  %5 = load ptr, ptr %3, align 8
  %6 = getelementptr inbounds nuw %"class.pxrInternal_v0_24__pxrReserved__::GfVec3d", ptr %5, i32 0, i32 0
  %7 = load double, ptr %4, align 8
  store double %7, ptr %6, align 8
  %8 = getelementptr inbounds double, ptr %6, i64 1
  %9 = load double, ptr %4, align 8
  store double %9, ptr %8, align 8
  %10 = getelementptr inbounds double, ptr %6, i64 2
  %11 = load double, ptr %4, align 8
  store double %11, ptr %10, align 8
  ret void
}

; Function Attrs: mustprogress uwtable
define void @_ZN32pxrInternal_v0_24__pxrReserved__9GfFrustumC2Ev(ptr noundef nonnull align 8 dereferenceable(128) %0) unnamed_addr #0 align 2 {
  %2 = alloca ptr, align 8
  %3 = alloca %"class.pxrInternal_v0_24__pxrReserved__::GfVec2d", align 8
  %4 = alloca %"class.pxrInternal_v0_24__pxrReserved__::GfVec2d", align 8
  store ptr %0, ptr %2, align 8
  %5 = load ptr, ptr %2, align 8
  %6 = getelementptr inbounds nuw %"class.pxrInternal_v0_24__pxrReserved__::GfFrustum", ptr %5, i32 0, i32 0
  call void @_ZN32pxrInternal_v0_24__pxrReserved__7GfVec3dC2Ed(ptr noundef nonnull align 8 dereferenceable(24) %6, double noundef 0.000000e+00)
  %7 = getelementptr inbounds nuw %"class.pxrInternal_v0_24__pxrReserved__::GfFrustum", ptr %5, i32 0, i32 1
  call void @_ZN32pxrInternal_v0_24__pxrReserved__10GfRotationC2Ev(ptr noundef nonnull align 8 dereferenceable(32) %7)
  %8 = getelementptr inbounds nuw %"class.pxrInternal_v0_24__pxrReserved__::GfFrustum", ptr %5, i32 0, i32 2
  call void @_ZN32pxrInternal_v0_24__pxrReserved__7GfVec2dC2Edd(ptr noundef nonnull align 8 dereferenceable(16) %3, double noundef -1.000000e+00, double noundef -1.000000e+00)
  call void @_ZN32pxrInternal_v0_24__pxrReserved__7GfVec2dC2Edd(ptr noundef nonnull align 8 dereferenceable(16) %4, double noundef 1.000000e+00, double noundef 1.000000e+00)
  call void @_ZN32pxrInternal_v0_24__pxrReserved__9GfRange2dC2ERKNS_7GfVec2dES3_(ptr noundef nonnull align 8 dereferenceable(32) %8, ptr noundef nonnull align 8 dereferenceable(16) %3, ptr noundef nonnull align 8 dereferenceable(16) %4)
  %9 = getelementptr inbounds nuw %"class.pxrInternal_v0_24__pxrReserved__::GfFrustum", ptr %5, i32 0, i32 3
  call void @_ZN32pxrInternal_v0_24__pxrReserved__9GfRange1dC2Edd(ptr noundef nonnull align 8 dereferenceable(16) %9, double noundef 1.000000e+00, double noundef 1.000000e+01)
  %10 = getelementptr inbounds nuw %"class.pxrInternal_v0_24__pxrReserved__::GfFrustum", ptr %5, i32 0, i32 4
  store double 5.000000e+00, ptr %10, align 8
  %11 = getelementptr inbounds nuw %"class.pxrInternal_v0_24__pxrReserved__::GfFrustum", ptr %5, i32 0, i32 5
  store i32 1, ptr %11, align 8
  %12 = getelementptr inbounds nuw %"class.pxrInternal_v0_24__pxrReserved__::GfFrustum", ptr %5, i32 0, i32 6
  call void @_ZNSt6atomicIPSt5arrayIN32pxrInternal_v0_24__pxrReserved__7GfPlaneELm6EEEC2ES4_(ptr noundef nonnull align 8 dereferenceable(8) %12, ptr noundef null) #11
  %13 = getelementptr inbounds nuw %"class.pxrInternal_v0_24__pxrReserved__::GfFrustum", ptr %5, i32 0, i32 1
  %14 = call noundef nonnull align 8 dereferenceable(32) ptr @_ZN32pxrInternal_v0_24__pxrReserved__10GfRotation11SetIdentityEv(ptr noundef nonnull align 8 dereferenceable(32) %13)
  ret void
}