; Function Attrs: mustprogress nofree norecurse nosync nounwind willreturn memory(argmem: write) uwtable
define void @_ZN32pxrInternal_v0_24__pxrReserved__9GfFrustumC2Ev(ptr nocapture noundef nonnull writeonly align 8 dereferenceable(128) %0) unnamed_addr #1 align 2 {
  %2 = getelementptr inbounds nuw i8, ptr %0, i64 24
  %3 = getelementptr inbounds nuw i8, ptr %0, i64 56
  tail call void @llvm.memset.p0.i64(ptr noundef nonnull align 8 dereferenceable(24) %0, i8 0, i64 24, i1 false)
  store double -1.000000e+00, ptr %3, align 8
  %.sroa.22.0..sroa_idx = getelementptr inbounds i8, ptr %0, i64 64
  store double -1.000000e+00, ptr %.sroa.22.0..sroa_idx, align 8
  %4 = getelementptr inbounds i8, ptr %0, i64 72
  store double 1.000000e+00, ptr %4, align 8
  %.sroa.2.0..sroa_idx = getelementptr inbounds i8, ptr %0, i64 80
  store double 1.000000e+00, ptr %.sroa.2.0..sroa_idx, align 8
  %5 = getelementptr inbounds nuw i8, ptr %0, i64 88
  store double 1.000000e+00, ptr %5, align 8
  %6 = getelementptr inbounds i8, ptr %0, i64 96
  store double 1.000000e+01, ptr %6, align 8
  %7 = getelementptr inbounds nuw i8, ptr %0, i64 104
  store double 5.000000e+00, ptr %7, align 8
  %8 = getelementptr inbounds nuw i8, ptr %0, i64 112
  store i32 1, ptr %8, align 8
  %9 = getelementptr inbounds nuw i8, ptr %0, i64 120
  store ptr null, ptr %9, align 8
  store double 1.000000e+00, ptr %2, align 8
  %10 = getelementptr inbounds i8, ptr %0, i64 32
  tail call void @llvm.memset.p0.i64(ptr noundef nonnull align 8 dereferenceable(24) %10, i8 0, i64 24, i1 false)
  ret void
}